target datalayout = "e-m:e-p270:32:32-p271:32:32-p272:64:64-i64:64-i128:128-f80:128-n8:16:32:64-S128"
target triple = "x86_64-pc-linux-gnu"

@g_assert_poison = external global ptr, align 8
@.str.4 = private unnamed_addr constant [42 x i8] c"src/hotspot/share/gc/x/xCollectedHeap.cpp\00", align 1
@.str.5 = private unnamed_addr constant [85 x i8] c"guarantee(cause == GCCause::_heap_dump || cause == GCCause::_heap_inspection) failed\00", align 1
@.str.6 = private unnamed_addr constant [14 x i8] c"Invalid cause\00", align 1

; Function Attrs: mustprogress nounwind uwtable
define hidden void @_ZN14XCollectedHeap20collect_as_vm_threadEN7GCCause5CauseE(ptr noundef nonnull align 64 dereferenceable(4432) %0, i32 noundef %1) unnamed_addr #1 align 2 {
  %3 = alloca ptr, align 8
  %4 = alloca i32, align 4
  store ptr %0, ptr %3, align 8
  store i32 %1, ptr %4, align 4
  br label %5

5:                                                ; preds = %2
  %6 = load i32, ptr %4, align 4
  %7 = icmp eq i32 %6, 7
  br i1 %7, label %13, label %8

8:                                                ; preds = %5
  %9 = load i32, ptr %4, align 4
  %10 = icmp eq i32 %9, 6
  br i1 %10, label %13, label %11

11:                                               ; preds = %8
  %12 = load ptr, ptr @g_assert_poison, align 8
  store i8 88, ptr %12, align 1
  call void (ptr, i32, ptr, ptr, ...) @_Z15report_vm_errorPKciS0_S0_z(ptr noundef @.str.4, i32 noundef 195, ptr noundef @.str.5, ptr noundef @.str.6) #6
  unreachable

13:                                               ; preds = %8, %5
  br label %14

14:                                               ; preds = %13
  ret void
}