; Function Attrs: mustprogress nounwind uwtable
define hidden void @_ZN14XCollectedHeap20collect_as_vm_threadEN7GCCause5CauseE(ptr nocapture nonnull readnone align 64 %0, i32 noundef %1) unnamed_addr #1 align 2 {
  %3 = and i32 %1, -2
  %or.cond = icmp eq i32 %3, 6
  br i1 %or.cond, label %6, label %4

4:                                                ; preds = %2
  %5 = load ptr, ptr @g_assert_poison, align 8
  store i8 88, ptr %5, align 1
  tail call void (ptr, i32, ptr, ptr, ...) @_Z15report_vm_errorPKciS0_S0_z(ptr noundef nonnull @.str.4, i32 noundef 195, ptr noundef nonnull @.str.5, ptr noundef nonnull @.str.6) #10
  unreachable

6:                                                ; preds = %2
  ret void
}